target datalayout = "e-m:e-p270:32:32-p271:32:32-p272:64:64-i64:64-i128:128-f80:128-n8:16:32:64-S128"
target triple = "x86_64-pc-linux-gnu"

@.str = private unnamed_addr constant [5 x i8] c"plug\00", align 1

; Function Attrs: mustprogress nounwind uwtable
define internal void @_ZN32pxrInternal_v0_24__pxrReserved__12_GLOBAL__N_121Tf_RegistryStaticInitD2Ev(ptr noundef nonnull align 1 dereferenceable(1) %0) unnamed_addr #2 align 2 personality ptr @__gxx_personality_v0 {
  %2 = alloca ptr, align 8
  store ptr %0, ptr %2, align 8
  invoke void @_ZN32pxrInternal_v0_24__pxrReserved__19Tf_RegistryInitDtorEPKc(ptr noundef @.str)
          to label %3 unwind label %4

3:                                                ; preds = %1
  ret void

4:                                                ; preds = %1
  %5 = landingpad { ptr, i32 }
          catch ptr null
  %6 = extractvalue { ptr, i32 } %5, 0
  call void @__clang_call_terminate(ptr %6) #13
  unreachable
}